target datalayout = "e-m:e-p270:32:32-p271:32:32-p272:64:64-i64:64-i128:128-f80:128-n8:16:32:64-S128"
target triple = "x86_64-pc-linux-gnu"

%"class.OpenSubdiv::v3_6_0::Far::PatchDescriptor" = type { i32 }
%"class.OpenSubdiv::v3_6_0::Far::PatchTable" = type <{ i32, i32, %"class.std::vector", %"class.std::vector.0", %"class.std::vector.5", %"class.std::vector.10", %"class.std::vector.0", %"class.OpenSubdiv::v3_6_0::Far::PatchTable::StencilTablePtr", %"class.OpenSubdiv::v3_6_0::Far::PatchTable::StencilTablePtr", %"class.OpenSubdiv::v3_6_0::Far::PatchDescriptor", [4 x i8], %"class.std::vector.0", %"class.std::vector.15", %"class.std::vector.20", %"class.std::vector.0", %"class.std::vector.25", i8, [7 x i8] }>
%"class.std::vector" = type { %"struct.std::_Vector_base" }
%"struct.std::_Vector_base" = type { %"struct.std::_Vector_base<OpenSubdiv::v3_6_0::Far::PatchTable::PatchArray, std::allocator<OpenSubdiv::v3_6_0::Far::PatchTable::PatchArray>>::_Vector_impl" }
%"struct.std::_Vector_base<OpenSubdiv::v3_6_0::Far::PatchTable::PatchArray, std::allocator<OpenSubdiv::v3_6_0::Far::PatchTable::PatchArray>>::_Vector_impl" = type { %"struct.std::_Vector_base<OpenSubdiv::v3_6_0::Far::PatchTable::PatchArray, std::allocator<OpenSubdiv::v3_6_0::Far::PatchTable::PatchArray>>::_Vector_impl_data" }
%"struct.std::_Vector_base<OpenSubdiv::v3_6_0::Far::PatchTable::PatchArray, std::allocator<OpenSubdiv::v3_6_0::Far::PatchTable::PatchArray>>::_Vector_impl_data" = type { ptr, ptr, ptr }
%"class.std::vector.5" = type { %"struct.std::_Vector_base.6" }
%"struct.std::_Vector_base.6" = type { %"struct.std::_Vector_base<OpenSubdiv::v3_6_0::Far::PatchParam, std::allocator<OpenSubdiv::v3_6_0::Far::PatchParam>>::_Vector_impl" }
%"struct.std::_Vector_base<OpenSubdiv::v3_6_0::Far::PatchParam, std::allocator<OpenSubdiv::v3_6_0::Far::PatchParam>>::_Vector_impl" = type { %"struct.std::_Vector_base<OpenSubdiv::v3_6_0::Far::PatchParam, std::allocator<OpenSubdiv::v3_6_0::Far::PatchParam>>::_Vector_impl_data" }
%"struct.std::_Vector_base<OpenSubdiv::v3_6_0::Far::PatchParam, std::allocator<OpenSubdiv::v3_6_0::Far::PatchParam>>::_Vector_impl_data" = type { ptr, ptr, ptr }
%"class.std::vector.10" = type { %"struct.std::_Vector_base.11" }
%"struct.std::_Vector_base.11" = type { %"struct.std::_Vector_base<unsigned int, std::allocator<unsigned int>>::_Vector_impl" }
%"struct.std::_Vector_base<unsigned int, std::allocator<unsigned int>>::_Vector_impl" = type { %"struct.std::_Vector_base<unsigned int, std::allocator<unsigned int>>::_Vector_impl_data" }
%"struct.std::_Vector_base<unsigned int, std::allocator<unsigned int>>::_Vector_impl_data" = type { ptr, ptr, ptr }
%"class.OpenSubdiv::v3_6_0::Far::PatchTable::StencilTablePtr" = type { %union.anon }
%union.anon = type { ptr }
%"class.std::vector.15" = type { %"struct.std::_Vector_base.16" }
%"struct.std::_Vector_base.16" = type { %"struct.std::_Vector_base<OpenSubdiv::v3_6_0::Far::PatchTable::FVarPatchChannel, std::allocator<OpenSubdiv::v3_6_0::Far::PatchTable::FVarPatchChannel>>::_Vector_impl" }
%"struct.std::_Vector_base<OpenSubdiv::v3_6_0::Far::PatchTable::FVarPatchChannel, std::allocator<OpenSubdiv::v3_6_0::Far::PatchTable::FVarPatchChannel>>::_Vector_impl" = type { %"struct.std::_Vector_base<OpenSubdiv::v3_6_0::Far::PatchTable::FVarPatchChannel, std::allocator<OpenSubdiv::v3_6_0::Far::PatchTable::FVarPatchChannel>>::_Vector_impl_data" }
%"struct.std::_Vector_base<OpenSubdiv::v3_6_0::Far::PatchTable::FVarPatchChannel, std::allocator<OpenSubdiv::v3_6_0::Far::PatchTable::FVarPatchChannel>>::_Vector_impl_data" = type { ptr, ptr, ptr }
%"class.std::vector.20" = type { %"struct.std::_Vector_base.21" }
%"struct.std::_Vector_base.21" = type { %"struct.std::_Vector_base<OpenSubdiv::v3_6_0::Far::PatchTable::StencilTablePtr, std::allocator<OpenSubdiv::v3_6_0::Far::PatchTable::StencilTablePtr>>::_Vector_impl" }
%"struct.std::_Vector_base<OpenSubdiv::v3_6_0::Far::PatchTable::StencilTablePtr, std::allocator<OpenSubdiv::v3_6_0::Far::PatchTable::StencilTablePtr>>::_Vector_impl" = type { %"struct.std::_Vector_base<OpenSubdiv::v3_6_0::Far::PatchTable::StencilTablePtr, std::allocator<OpenSubdiv::v3_6_0::Far::PatchTable::StencilTablePtr>>::_Vector_impl_data" }
%"struct.std::_Vector_base<OpenSubdiv::v3_6_0::Far::PatchTable::StencilTablePtr, std::allocator<OpenSubdiv::v3_6_0::Far::PatchTable::StencilTablePtr>>::_Vector_impl_data" = type { ptr, ptr, ptr }
%"class.std::vector.0" = type { %"struct.std::_Vector_base.1" }
%"struct.std::_Vector_base.1" = type { %"struct.std::_Vector_base<int, std::allocator<int>>::_Vector_impl" }
%"struct.std::_Vector_base<int, std::allocator<int>>::_Vector_impl" = type { %"struct.std::_Vector_base<int, std::allocator<int>>::_Vector_impl_data" }
%"struct.std::_Vector_base<int, std::allocator<int>>::_Vector_impl_data" = type { ptr, ptr, ptr }
%"class.std::vector.25" = type { %"struct.std::_Vector_base.26" }
%"struct.std::_Vector_base.26" = type { %"struct.std::_Vector_base<float, std::allocator<float>>::_Vector_impl" }
%"struct.std::_Vector_base<float, std::allocator<float>>::_Vector_impl" = type { %"struct.std::_Vector_base<float, std::allocator<float>>::_Vector_impl_data" }
%"struct.std::_Vector_base<float, std::allocator<float>>::_Vector_impl_data" = type { ptr, ptr, ptr }
%"struct.OpenSubdiv::v3_6_0::Far::PatchTable::PatchArray" = type { %"class.OpenSubdiv::v3_6_0::Far::PatchDescriptor", i32, i32, i32, i32 }

@.str.1 = private unnamed_addr constant [65 x i8] c"    numPatches=%d vertIndex=%d patchIndex=%d quadOffsetIndex=%d\0A\00", align 1
@.str.4 = private unnamed_addr constant [19 x i8] c"patchTable (0x%p)\0A\00", align 1
@.str.5 = private unnamed_addr constant [19 x i8] c"  numPatches = %d\0A\00", align 1
@.str.6 = private unnamed_addr constant [18 x i8] c"  patchArray %d:\0A\00", align 1

; Function Attrs: mustprogress nounwind uwtable
define linkonce_odr noundef nonnull align 4 dereferenceable(20) ptr @_ZNKSt6vectorIN10OpenSubdiv6v3_6_03Far10PatchTable10PatchArrayESaIS4_EEixEm(ptr noundef nonnull align 8 dereferenceable(24) %0, i64 noundef %1) #5 comdat align 2 {
  %3 = alloca ptr, align 8
  %4 = alloca i64, align 8
  store ptr %0, ptr %3, align 8
  store i64 %1, ptr %4, align 8
  %5 = load ptr, ptr %3, align 8
  %6 = getelementptr inbounds nuw %"struct.std::_Vector_base", ptr %5, i32 0, i32 0
  %7 = getelementptr inbounds nuw %"struct.std::_Vector_base<OpenSubdiv::v3_6_0::Far::PatchTable::PatchArray, std::allocator<OpenSubdiv::v3_6_0::Far::PatchTable::PatchArray>>::_Vector_impl_data", ptr %6, i32 0, i32 0
  %8 = load ptr, ptr %7, align 8
  %9 = load i64, ptr %4, align 8
  %10 = getelementptr inbounds %"struct.OpenSubdiv::v3_6_0::Far::PatchTable::PatchArray", ptr %8, i64 %9
  ret ptr %10
}

; Function Attrs: mustprogress nounwind uwtable
define linkonce_odr noundef i64 @_ZNKSt6vectorIN10OpenSubdiv6v3_6_03Far10PatchTable10PatchArrayESaIS4_EE4sizeEv(ptr noundef nonnull align 8 dereferenceable(24) %0) #5 comdat align 2 {
  %2 = alloca ptr, align 8
  store ptr %0, ptr %2, align 8
  %3 = load ptr, ptr %2, align 8
  %4 = getelementptr inbounds nuw %"struct.std::_Vector_base", ptr %3, i32 0, i32 0
  %5 = getelementptr inbounds nuw %"struct.std::_Vector_base<OpenSubdiv::v3_6_0::Far::PatchTable::PatchArray, std::allocator<OpenSubdiv::v3_6_0::Far::PatchTable::PatchArray>>::_Vector_impl_data", ptr %4, i32 0, i32 1
  %6 = load ptr, ptr %5, align 8
  %7 = getelementptr inbounds nuw %"struct.std::_Vector_base", ptr %3, i32 0, i32 0
  %8 = getelementptr inbounds nuw %"struct.std::_Vector_base<OpenSubdiv::v3_6_0::Far::PatchTable::PatchArray, std::allocator<OpenSubdiv::v3_6_0::Far::PatchTable::PatchArray>>::_Vector_impl_data", ptr %7, i32 0, i32 0
  %9 = load ptr, ptr %8, align 8
  %10 = ptrtoint ptr %6 to i64
  %11 = ptrtoint ptr %9 to i64
  %12 = sub i64 %10, %11
  %13 = sdiv exact i64 %12, 20
  ret i64 %13
}

; Function Attrs: mustprogress nounwind uwtable
define linkonce_odr noundef i64 @_ZNKSt6vectorIN10OpenSubdiv6v3_6_03Far10PatchParamESaIS3_EE4sizeEv(ptr noundef nonnull align 8 dereferenceable(24) %0) #5 comdat align 2 {
  %2 = alloca ptr, align 8
  store ptr %0, ptr %2, align 8
  %3 = load ptr, ptr %2, align 8
  %4 = getelementptr inbounds nuw %"struct.std::_Vector_base.6", ptr %3, i32 0, i32 0
  %5 = getelementptr inbounds nuw %"struct.std::_Vector_base<OpenSubdiv::v3_6_0::Far::PatchParam, std::allocator<OpenSubdiv::v3_6_0::Far::PatchParam>>::_Vector_impl_data", ptr %4, i32 0, i32 1
  %6 = load ptr, ptr %5, align 8
  %7 = getelementptr inbounds nuw %"struct.std::_Vector_base.6", ptr %3, i32 0, i32 0
  %8 = getelementptr inbounds nuw %"struct.std::_Vector_base<OpenSubdiv::v3_6_0::Far::PatchParam, std::allocator<OpenSubdiv::v3_6_0::Far::PatchParam>>::_Vector_impl_data", ptr %7, i32 0, i32 0
  %9 = load ptr, ptr %8, align 8
  %10 = ptrtoint ptr %6 to i64
  %11 = ptrtoint ptr %9 to i64
  %12 = sub i64 %10, %11
  %13 = sdiv exact i64 %12, 8
  ret i64 %13
}

; Function Attrs: mustprogress uwtable
define void @_ZNK10OpenSubdiv6v3_6_03Far10PatchTable10PatchArray5printEv(ptr noundef nonnull align 4 dereferenceable(20) %0) #4 align 2 {
  %2 = alloca ptr, align 8
  store ptr %0, ptr %2, align 8
  %3 = load ptr, ptr %2, align 8
  %4 = getelementptr inbounds nuw %"struct.OpenSubdiv::v3_6_0::Far::PatchTable::PatchArray", ptr %3, i32 0, i32 0
  call void @_ZNK10OpenSubdiv6v3_6_03Far15PatchDescriptor5printEv(ptr noundef nonnull align 4 dereferenceable(4) %4)
  %5 = getelementptr inbounds nuw %"struct.OpenSubdiv::v3_6_0::Far::PatchTable::PatchArray", ptr %3, i32 0, i32 1
  %6 = load i32, ptr %5, align 4
  %7 = getelementptr inbounds nuw %"struct.OpenSubdiv::v3_6_0::Far::PatchTable::PatchArray", ptr %3, i32 0, i32 2
  %8 = load i32, ptr %7, align 4
  %9 = getelementptr inbounds nuw %"struct.OpenSubdiv::v3_6_0::Far::PatchTable::PatchArray", ptr %3, i32 0, i32 3
  %10 = load i32, ptr %9, align 4
  %11 = getelementptr inbounds nuw %"struct.OpenSubdiv::v3_6_0::Far::PatchTable::PatchArray", ptr %3, i32 0, i32 4
  %12 = load i32, ptr %11, align 4
  %13 = call i32 (ptr, ...) @printf(ptr noundef @.str.1, i32 noundef %6, i32 noundef %8, i32 noundef %10, i32 noundef %12)
  ret void
}

; Function Attrs: mustprogress nounwind uwtable
define linkonce_odr noundef nonnull align 4 dereferenceable(20) ptr @_ZNK10OpenSubdiv6v3_6_03Far10PatchTable13getPatchArrayEi(ptr noundef nonnull align 8 dereferenceable(273) %0, i32 noundef %1) #5 comdat align 2 {
  %3 = alloca ptr, align 8
  %4 = alloca i32, align 4
  store ptr %0, ptr %3, align 8
  store i32 %1, ptr %4, align 4
  %5 = load ptr, ptr %3, align 8
  %6 = getelementptr inbounds nuw %"class.OpenSubdiv::v3_6_0::Far::PatchTable", ptr %5, i32 0, i32 2
  %7 = load i32, ptr %4, align 4
  %8 = sext i32 %7 to i64
  %9 = call noundef nonnull align 4 dereferenceable(20) ptr @_ZNKSt6vectorIN10OpenSubdiv6v3_6_03Far10PatchTable10PatchArrayESaIS4_EEixEm(ptr noundef nonnull align 8 dereferenceable(24) %6, i64 noundef %8) #3
  ret ptr %9
}

; Function Attrs: mustprogress nounwind uwtable
define noundef i32 @_ZNK10OpenSubdiv6v3_6_03Far10PatchTable17GetNumPatchArraysEv(ptr noundef nonnull align 8 dereferenceable(273) %0) #5 align 2 {
  %2 = alloca ptr, align 8
  store ptr %0, ptr %2, align 8
  %3 = load ptr, ptr %2, align 8
  %4 = getelementptr inbounds nuw %"class.OpenSubdiv::v3_6_0::Far::PatchTable", ptr %3, i32 0, i32 2
  %5 = call noundef i64 @_ZNKSt6vectorIN10OpenSubdiv6v3_6_03Far10PatchTable10PatchArrayESaIS4_EE4sizeEv(ptr noundef nonnull align 8 dereferenceable(24) %4) #3
  %6 = trunc i64 %5 to i32
  ret i32 %6
}

; Function Attrs: mustprogress nounwind uwtable
define noundef i32 @_ZNK10OpenSubdiv6v3_6_03Far10PatchTable18GetNumPatchesTotalEv(ptr noundef nonnull align 8 dereferenceable(273) %0) #5 align 2 {
  %2 = alloca ptr, align 8
  store ptr %0, ptr %2, align 8
  %3 = load ptr, ptr %2, align 8
  %4 = getelementptr inbounds nuw %"class.OpenSubdiv::v3_6_0::Far::PatchTable", ptr %3, i32 0, i32 4
  %5 = call noundef i64 @_ZNKSt6vectorIN10OpenSubdiv6v3_6_03Far10PatchParamESaIS3_EE4sizeEv(ptr noundef nonnull align 8 dereferenceable(24) %4) #3
  %6 = trunc i64 %5 to i32
  ret i32 %6
}

; Function Attrs: mustprogress uwtable
define void @_ZNK10OpenSubdiv6v3_6_03Far10PatchTable5printEv(ptr noundef nonnull align 8 dereferenceable(273) %0) #4 align 2 {
  %2 = alloca ptr, align 8
  %3 = alloca i32, align 4
  %4 = alloca ptr, align 8
  store ptr %0, ptr %2, align 8
  %5 = load ptr, ptr %2, align 8
  %6 = call i32 (ptr, ...) @printf(ptr noundef @.str.4, ptr noundef %5)
  %7 = call noundef i32 @_ZNK10OpenSubdiv6v3_6_03Far10PatchTable18GetNumPatchesTotalEv(ptr noundef nonnull align 8 dereferenceable(273) %5)
  %8 = call i32 (ptr, ...) @printf(ptr noundef @.str.5, i32 noundef %7)
  store i32 0, ptr %3, align 4
  br label %9

9:                                                ; preds = %19, %1
  %10 = load i32, ptr %3, align 4
  %11 = call noundef i32 @_ZNK10OpenSubdiv6v3_6_03Far10PatchTable17GetNumPatchArraysEv(ptr noundef nonnull align 8 dereferenceable(273) %5)
  %12 = icmp slt i32 %10, %11
  br i1 %12, label %13, label %22

13:                                               ; preds = %9
  %14 = load i32, ptr %3, align 4
  %15 = call i32 (ptr, ...) @printf(ptr noundef @.str.6, i32 noundef %14)
  %16 = load i32, ptr %3, align 4
  %17 = call noundef nonnull align 4 dereferenceable(20) ptr @_ZNK10OpenSubdiv6v3_6_03Far10PatchTable13getPatchArrayEi(ptr noundef nonnull align 8 dereferenceable(273) %5, i32 noundef %16)
  store ptr %17, ptr %4, align 8
  %18 = load ptr, ptr %4, align 8
  call void @_ZNK10OpenSubdiv6v3_6_03Far10PatchTable10PatchArray5printEv(ptr noundef nonnull align 4 dereferenceable(20) %18)
  br label %19

19:                                               ; preds = %13
  %20 = load i32, ptr %3, align 4
  %21 = add nsw i32 %20, 1
  store i32 %21, ptr %3, align 4
  br label %9, !llvm.loop !21

22:                                               ; preds = %9
  ret void
}